target datalayout = "e-m:e-p270:32:32-p271:32:32-p272:64:64-i64:64-i128:128-f80:128-n8:16:32:64-S128"
target triple = "x86_64-pc-linux-gnu"

%"class.icu_77::UObject" = type { ptr }
%"class.icu_77::Calendar" = type <{ %"class.icu_77::UObject", [24 x i32], [24 x i8], i8, [7 x i8], double, ptr, i8, i16, i8, i32, i32, i32, i8, i8, i16, [4 x i8], ptr, ptr }>

@_ZN6icu_77L19gTemporalMonthCodesE = internal constant [13 x ptr] [ptr @.str.35, ptr @.str.36, ptr @.str.37, ptr @.str.38, ptr @.str.39, ptr @.str.40, ptr @.str.41, ptr @.str.42, ptr @.str.43, ptr @.str.44, ptr @.str.45, ptr @.str.46, ptr null], align 16

; Function Attrs: mustprogress nounwind uwtable
define noundef signext i8 @_ZNK6icu_778Calendar9isLenientEv(ptr noundef nonnull align 8 dereferenceable(192) %0) #0 align 2 {
  %2 = alloca ptr, align 8
  store ptr %0, ptr %2, align 8, !tbaa !37
  %3 = load ptr, ptr %2, align 8
  %4 = getelementptr inbounds nuw %"class.icu_77::Calendar", ptr %3, i32 0, i32 7
  %5 = load i8, ptr %4, align 8
  %6 = lshr i8 %5, 4
  %7 = and i8 %6, 1
  %8 = trunc i8 %7 to i1
  %9 = zext i1 %8 to i8
  ret i8 %9
}

; Function Attrs: mustprogress uwtable
define void @_ZN6icu_778Calendar10updateTimeER10UErrorCode(ptr noundef nonnull align 8 dereferenceable(192) %0, ptr noundef nonnull align 4 dereferenceable(4) %1) #1 align 2 {
  %3 = alloca ptr, align 8
  %4 = alloca ptr, align 8
  store ptr %0, ptr %3, align 8, !tbaa !37
  store ptr %1, ptr %4, align 8, !tbaa !22
  %5 = load ptr, ptr %3, align 8
  %6 = load ptr, ptr %4, align 8, !tbaa !22
  %7 = load ptr, ptr %5, align 8, !tbaa !25
  %8 = getelementptr inbounds ptr, ptr %7, i64 31
  %9 = load ptr, ptr %8, align 8
  call void %9(ptr noundef nonnull align 8 dereferenceable(192) %5, ptr noundef nonnull align 4 dereferenceable(4) %6)
  %10 = load ptr, ptr %4, align 8, !tbaa !22
  %11 = load i32, ptr %10, align 4, !tbaa !15
  %12 = call noundef signext i8 @_ZL9U_FAILURE10UErrorCode(i32 noundef %11)
  %13 = icmp ne i8 %12, 0
  br i1 %13, label %14, label %15

14:                                               ; preds = %2
  br label %38

15:                                               ; preds = %2
  %16 = call noundef signext i8 @_ZNK6icu_778Calendar9isLenientEv(ptr noundef nonnull align 8 dereferenceable(192) %5)
  %17 = icmp ne i8 %16, 0
  br i1 %17, label %24, label %18

18:                                               ; preds = %15
  %19 = getelementptr inbounds nuw %"class.icu_77::Calendar", ptr %5, i32 0, i32 7
  %20 = load i8, ptr %19, align 8
  %21 = lshr i8 %20, 2
  %22 = and i8 %21, 1
  %23 = trunc i8 %22 to i1
  br i1 %23, label %29, label %24

24:                                               ; preds = %18, %15
  %25 = getelementptr inbounds nuw %"class.icu_77::Calendar", ptr %5, i32 0, i32 7
  %26 = load i8, ptr %25, align 8
  %27 = and i8 %26, -3
  %28 = or i8 %27, 0
  store i8 %28, ptr %25, align 8
  br label %29

29:                                               ; preds = %24, %18
  %30 = getelementptr inbounds nuw %"class.icu_77::Calendar", ptr %5, i32 0, i32 7
  %31 = load i8, ptr %30, align 8
  %32 = and i8 %31, -2
  %33 = or i8 %32, 1
  store i8 %33, ptr %30, align 8
  %34 = getelementptr inbounds nuw %"class.icu_77::Calendar", ptr %5, i32 0, i32 7
  %35 = load i8, ptr %34, align 8
  %36 = and i8 %35, -9
  %37 = or i8 %36, 0
  store i8 %37, ptr %34, align 8
  br label %38

38:                                               ; preds = %29, %14
  ret void
}

; Function Attrs: mustprogress uwtable
define void @_ZN6icu_778Calendar8completeER10UErrorCode(ptr noundef nonnull align 8 dereferenceable(192) %0, ptr noundef nonnull align 4 dereferenceable(4) %1) #1 align 2 {
  %3 = alloca ptr, align 8
  %4 = alloca ptr, align 8
  store ptr %0, ptr %3, align 8, !tbaa !37
  store ptr %1, ptr %4, align 8, !tbaa !22
  %5 = load ptr, ptr %3, align 8
  %6 = load ptr, ptr %4, align 8, !tbaa !22
  %7 = load i32, ptr %6, align 4, !tbaa !15
  %8 = call noundef signext i8 @_ZL9U_FAILURE10UErrorCode(i32 noundef %7)
  %9 = icmp ne i8 %8, 0
  br i1 %9, label %10, label %11

10:                                               ; preds = %2
  br label %49

11:                                               ; preds = %2
  %12 = getelementptr inbounds nuw %"class.icu_77::Calendar", ptr %5, i32 0, i32 7
  %13 = load i8, ptr %12, align 8
  %14 = and i8 %13, 1
  %15 = trunc i8 %14 to i1
  br i1 %15, label %24, label %16

16:                                               ; preds = %11
  %17 = load ptr, ptr %4, align 8, !tbaa !22
  call void @_ZN6icu_778Calendar10updateTimeER10UErrorCode(ptr noundef nonnull align 8 dereferenceable(192) %5, ptr noundef nonnull align 4 dereferenceable(4) %17)
  %18 = load ptr, ptr %4, align 8, !tbaa !22
  %19 = load i32, ptr %18, align 4, !tbaa !15
  %20 = call noundef signext i8 @_ZL9U_FAILURE10UErrorCode(i32 noundef %19)
  %21 = icmp ne i8 %20, 0
  br i1 %21, label %22, label %23

22:                                               ; preds = %16
  br label %49

23:                                               ; preds = %16
  br label %24

24:                                               ; preds = %23, %11
  %25 = getelementptr inbounds nuw %"class.icu_77::Calendar", ptr %5, i32 0, i32 7
  %26 = load i8, ptr %25, align 8
  %27 = lshr i8 %26, 1
  %28 = and i8 %27, 1
  %29 = trunc i8 %28 to i1
  br i1 %29, label %49, label %30

30:                                               ; preds = %24
  %31 = load ptr, ptr %4, align 8, !tbaa !22
  %32 = load ptr, ptr %5, align 8, !tbaa !25
  %33 = getelementptr inbounds ptr, ptr %32, i64 32
  %34 = load ptr, ptr %33, align 8
  call void %34(ptr noundef nonnull align 8 dereferenceable(192) %5, ptr noundef nonnull align 4 dereferenceable(4) %31)
  %35 = load ptr, ptr %4, align 8, !tbaa !22
  %36 = load i32, ptr %35, align 4, !tbaa !15
  %37 = call noundef signext i8 @_ZL9U_FAILURE10UErrorCode(i32 noundef %36)
  %38 = icmp ne i8 %37, 0
  br i1 %38, label %39, label %40

39:                                               ; preds = %30
  br label %49

40:                                               ; preds = %30
  %41 = getelementptr inbounds nuw %"class.icu_77::Calendar", ptr %5, i32 0, i32 7
  %42 = load i8, ptr %41, align 8
  %43 = and i8 %42, -3
  %44 = or i8 %43, 2
  store i8 %44, ptr %41, align 8
  %45 = getelementptr inbounds nuw %"class.icu_77::Calendar", ptr %5, i32 0, i32 7
  %46 = load i8, ptr %45, align 8
  %47 = and i8 %46, -5
  %48 = or i8 %47, 4
  store i8 %48, ptr %45, align 8
  br label %49

49:                                               ; preds = %10, %22, %39, %40, %24
  ret void
}

; Function Attrs: inlinehint mustprogress nounwind uwtable
define internal noundef signext i8 @_ZL9U_SUCCESS10UErrorCode(i32 noundef %0) #2 {
  %2 = alloca i32, align 4
  store i32 %0, ptr %2, align 4, !tbaa !15
  %3 = load i32, ptr %2, align 4, !tbaa !15
  %4 = icmp sle i32 %3, 0
  %5 = zext i1 %4 to i8
  ret i8 %5
}

; Function Attrs: inlinehint mustprogress nounwind uwtable
define internal noundef signext i8 @_ZL9U_FAILURE10UErrorCode(i32 noundef %0) #2 {
  %2 = alloca i32, align 4
  store i32 %0, ptr %2, align 4, !tbaa !15
  %3 = load i32, ptr %2, align 4, !tbaa !15
  %4 = icmp sgt i32 %3, 0
  %5 = zext i1 %4 to i8
  ret i8 %5
}

; Function Attrs: mustprogress uwtable
define noundef i32 @_ZNK6icu_778Calendar3getE19UCalendarDateFieldsR10UErrorCode(ptr noundef nonnull align 8 dereferenceable(192) %0, i32 noundef %1, ptr noundef nonnull align 4 dereferenceable(4) %2) #1 align 2 {
  %4 = alloca i32, align 4
  %5 = alloca ptr, align 8
  %6 = alloca i32, align 4
  %7 = alloca ptr, align 8
  store ptr %0, ptr %5, align 8, !tbaa !37
  store i32 %1, ptr %6, align 4, !tbaa !106
  store ptr %2, ptr %7, align 8, !tbaa !22
  %8 = load ptr, ptr %5, align 8
  %9 = load ptr, ptr %7, align 8, !tbaa !22
  %10 = load i32, ptr %9, align 4, !tbaa !15
  %11 = call noundef signext i8 @_ZL9U_FAILURE10UErrorCode(i32 noundef %10)
  %12 = icmp ne i8 %11, 0
  br i1 %12, label %13, label %14

13:                                               ; preds = %3
  store i32 0, ptr %4, align 4
  br label %43

14:                                               ; preds = %3
  %15 = load i32, ptr %6, align 4, !tbaa !106
  %16 = icmp slt i32 %15, 0
  br i1 %16, label %20, label %17

17:                                               ; preds = %14
  %18 = load i32, ptr %6, align 4, !tbaa !106
  %19 = icmp sge i32 %18, 24
  br i1 %19, label %20, label %22

20:                                               ; preds = %17, %14
  %21 = load ptr, ptr %7, align 8, !tbaa !22
  store i32 1, ptr %21, align 4, !tbaa !15
  store i32 0, ptr %4, align 4
  br label %43

22:                                               ; preds = %17
  %23 = load ptr, ptr %7, align 8, !tbaa !22
  %24 = load i32, ptr %23, align 4, !tbaa !15
  %25 = call noundef signext i8 @_ZL9U_SUCCESS10UErrorCode(i32 noundef %24)
  %26 = icmp ne i8 %25, 0
  br i1 %26, label %27, label %29

27:                                               ; preds = %22
  %28 = load ptr, ptr %7, align 8, !tbaa !22
  call void @_ZN6icu_778Calendar8completeER10UErrorCode(ptr noundef nonnull align 8 dereferenceable(192) %8, ptr noundef nonnull align 4 dereferenceable(4) %28)
  br label %29

29:                                               ; preds = %27, %22
  %30 = load ptr, ptr %7, align 8, !tbaa !22
  %31 = load i32, ptr %30, align 4, !tbaa !15
  %32 = call noundef signext i8 @_ZL9U_SUCCESS10UErrorCode(i32 noundef %31)
  %33 = icmp ne i8 %32, 0
  br i1 %33, label %34, label %40

34:                                               ; preds = %29
  %35 = getelementptr inbounds nuw %"class.icu_77::Calendar", ptr %8, i32 0, i32 1
  %36 = load i32, ptr %6, align 4, !tbaa !106
  %37 = zext i32 %36 to i64
  %38 = getelementptr inbounds nuw [24 x i32], ptr %35, i64 0, i64 %37
  %39 = load i32, ptr %38, align 4, !tbaa !14
  br label %41

40:                                               ; preds = %29
  br label %41

41:                                               ; preds = %40, %34
  %42 = phi i32 [ %39, %34 ], [ 0, %40 ]
  store i32 %42, ptr %4, align 4
  br label %43

43:                                               ; preds = %41, %20, %13
  %44 = load i32, ptr %4, align 4
  ret i32 %44
}

; Function Attrs: mustprogress uwtable
define noundef ptr @_ZNK6icu_778Calendar20getTemporalMonthCodeER10UErrorCode(ptr noundef nonnull align 8 dereferenceable(192) %0, ptr noundef nonnull align 4 dereferenceable(4) %1) unnamed_addr #1 align 2 {
  %3 = alloca ptr, align 8
  %4 = alloca ptr, align 8
  %5 = alloca ptr, align 8
  %6 = alloca i32, align 4
  %7 = alloca i32, align 4
  store ptr %0, ptr %4, align 8, !tbaa !37
  store ptr %1, ptr %5, align 8, !tbaa !22
  %8 = load ptr, ptr %4, align 8
  call void @llvm.lifetime.start.p0(i64 4, ptr %6) #16
  %9 = load ptr, ptr %5, align 8, !tbaa !22
  %10 = call noundef i32 @_ZNK6icu_778Calendar3getE19UCalendarDateFieldsR10UErrorCode(ptr noundef nonnull align 8 dereferenceable(192) %8, i32 noundef 2, ptr noundef nonnull align 4 dereferenceable(4) %9)
  store i32 %10, ptr %6, align 4, !tbaa !14
  %11 = load ptr, ptr %5, align 8, !tbaa !22
  %12 = load i32, ptr %11, align 4, !tbaa !15
  %13 = call noundef signext i8 @_ZL9U_FAILURE10UErrorCode(i32 noundef %12)
  %14 = icmp ne i8 %13, 0
  br i1 %14, label %15, label %16

15:                                               ; preds = %2
  store ptr null, ptr %3, align 8
  store i32 1, ptr %7, align 4
  br label %21

16:                                               ; preds = %2
  %17 = load i32, ptr %6, align 4, !tbaa !14
  %18 = sext i32 %17 to i64
  %19 = getelementptr inbounds [13 x ptr], ptr @_ZN6icu_77L19gTemporalMonthCodesE, i64 0, i64 %18
  %20 = load ptr, ptr %19, align 8, !tbaa !17
  store ptr %20, ptr %3, align 8
  store i32 1, ptr %7, align 4
  br label %21

21:                                               ; preds = %16, %15
  call void @llvm.lifetime.end.p0(i64 4, ptr %6) #16
  %22 = load ptr, ptr %3, align 8
  ret ptr %22
}