; Function Attrs: mustprogress uwtable
define noundef ptr @_ZNK6icu_778Calendar20getTemporalMonthCodeER10UErrorCode(ptr noundef nonnull align 8 dereferenceable(192) %0, ptr noundef nonnull align 4 dereferenceable(4) %1) unnamed_addr #1 align 2 {
  %3 = load i32, ptr %1, align 4, !tbaa !13
  %4 = icmp slt i32 %3, 1
  br i1 %4, label %5, label %_ZNK6icu_778Calendar3getE19UCalendarDateFieldsR10UErrorCode.exit.thread

5:                                                ; preds = %2
  %6 = getelementptr inbounds nuw i8, ptr %0, i64 152
  %7 = load i8, ptr %6, align 8
  %8 = trunc i8 %7 to i1
  br i1 %8, label %_ZN6icu_778Calendar10updateTimeER10UErrorCode.exit._crit_edge.i.i, label %9

9:                                                ; preds = %5
  %10 = load ptr, ptr %0, align 8, !tbaa !15
  %11 = getelementptr inbounds nuw i8, ptr %10, i64 248
  %12 = load ptr, ptr %11, align 8
  tail call void %12(ptr noundef nonnull align 8 dereferenceable(192) %0, ptr noundef nonnull align 4 dereferenceable(4) %1)
  %13 = load i32, ptr %1, align 4, !tbaa !13
  %14 = icmp slt i32 %13, 1
  br i1 %14, label %_ZN6icu_778Calendar10updateTimeER10UErrorCode.exit.i.i, label %_ZNK6icu_778Calendar3getE19UCalendarDateFieldsR10UErrorCode.exit.thread

_ZN6icu_778Calendar10updateTimeER10UErrorCode.exit.i.i: ; preds = %9
  %15 = load i8, ptr %6, align 8
  %16 = and i8 %15, 20
  %or.cond.not.i.i.i = icmp eq i8 %16, 4
  %.v.i.i.i = select i1 %or.cond.not.i.i.i, i8 -10, i8 -12
  %17 = and i8 %.v.i.i.i, %15
  %18 = or disjoint i8 %17, 1
  store i8 %18, ptr %6, align 8
  %.pre.i.i = load i32, ptr %1, align 4, !tbaa !13
  %19 = icmp slt i32 %.pre.i.i, 1
  br i1 %19, label %_ZN6icu_778Calendar10updateTimeER10UErrorCode.exit._crit_edge.i.i, label %_ZNK6icu_778Calendar3getE19UCalendarDateFieldsR10UErrorCode.exit.thread

_ZN6icu_778Calendar10updateTimeER10UErrorCode.exit._crit_edge.i.i: ; preds = %_ZN6icu_778Calendar10updateTimeER10UErrorCode.exit.i.i, %5
  %20 = phi i8 [ %7, %5 ], [ %18, %_ZN6icu_778Calendar10updateTimeER10UErrorCode.exit.i.i ]
  %21 = and i8 %20, 2
  %.not7.i.i = icmp eq i8 %21, 0
  br i1 %.not7.i.i, label %22, label %31

22:                                               ; preds = %_ZN6icu_778Calendar10updateTimeER10UErrorCode.exit._crit_edge.i.i
  %23 = load ptr, ptr %0, align 8, !tbaa !15
  %24 = getelementptr inbounds nuw i8, ptr %23, i64 256
  %25 = load ptr, ptr %24, align 8
  tail call void %25(ptr noundef nonnull align 8 dereferenceable(192) %0, ptr noundef nonnull align 4 dereferenceable(4) %1)
  %26 = load i32, ptr %1, align 4, !tbaa !13
  %27 = icmp slt i32 %26, 1
  br i1 %27, label %_ZN6icu_778Calendar8completeER10UErrorCode.exit.i, label %_ZNK6icu_778Calendar3getE19UCalendarDateFieldsR10UErrorCode.exit.thread

_ZN6icu_778Calendar8completeER10UErrorCode.exit.i: ; preds = %22
  %28 = load i8, ptr %6, align 8
  %29 = or i8 %28, 6
  store i8 %29, ptr %6, align 8
  %.pre.i = load i32, ptr %1, align 4, !tbaa !13
  %30 = icmp sgt i32 %.pre.i, 0
  br i1 %30, label %_ZNK6icu_778Calendar3getE19UCalendarDateFieldsR10UErrorCode.exit.thread, label %31

31:                                               ; preds = %_ZN6icu_778Calendar8completeER10UErrorCode.exit.i, %_ZN6icu_778Calendar10updateTimeER10UErrorCode.exit._crit_edge.i.i
  %32 = getelementptr inbounds nuw i8, ptr %0, i64 16
  %33 = load i32, ptr %32, align 8, !tbaa !12
  %34 = sext i32 %33 to i64
  %35 = getelementptr inbounds [13 x ptr], ptr @_ZN6icu_77L19gTemporalMonthCodesE, i64 0, i64 %34
  %36 = load ptr, ptr %35, align 8, !tbaa !58
  br label %_ZNK6icu_778Calendar3getE19UCalendarDateFieldsR10UErrorCode.exit.thread

_ZNK6icu_778Calendar3getE19UCalendarDateFieldsR10UErrorCode.exit.thread: ; preds = %9, %_ZN6icu_778Calendar10updateTimeER10UErrorCode.exit.i.i, %22, %_ZN6icu_778Calendar8completeER10UErrorCode.exit.i, %2, %31
  %.0 = phi ptr [ %36, %31 ], [ null, %2 ], [ null, %_ZN6icu_778Calendar8completeER10UErrorCode.exit.i ], [ null, %22 ], [ null, %_ZN6icu_778Calendar10updateTimeER10UErrorCode.exit.i.i ], [ null, %9 ]
  ret ptr %.0
}